; Function Attrs: mustprogress uwtable
define internal { double, double } @_ZL14eck3_s_inverse5PJ_XYP8PJconsts(double %0, double %1, ptr nocapture noundef readonly %2) #0 {
  %4 = getelementptr inbounds i8, ptr %2, i64 88
  %5 = load ptr, ptr %4, align 8
  %6 = getelementptr inbounds i8, ptr %5, i64 8
  %7 = load double, ptr %6, align 8
  %8 = fdiv double %1, %7
  %9 = load double, ptr %5, align 8
  %10 = getelementptr inbounds i8, ptr %5, i64 16
  %11 = load double, ptr %10, align 8
  %12 = getelementptr inbounds i8, ptr %5, i64 24
  %13 = load double, ptr %12, align 8
  %14 = fneg double %13
  %15 = fmul double %8, %14
  %16 = tail call double @llvm.fmuladd.f64(double %15, double %8, double 1.000000e+00)
  %17 = tail call noundef double @_Z5asqrtd(double noundef %16)
  %18 = fadd double %11, %17
  %19 = fmul double %9, %18
  %20 = fcmp oeq double %19, 0.000000e+00
  %21 = fdiv double %0, %19
  %.sroa.07.0 = select i1 %20, double 0x7FF0000000000000, double %21
  %.fca.0.insert = insertvalue { double, double } poison, double %.sroa.07.0, 0
  %.fca.1.insert = insertvalue { double, double } %.fca.0.insert, double %8, 1
  ret { double, double } %.fca.1.insert
}